; Function Attrs: mustprogress uwtable
define internal void @_ZN12_GLOBAL__N_124rel_act_case_split_queue15unassign_var_ehEj(ptr noundef nonnull align 8 dereferenceable(80) %this, i32 noundef %v) unnamed_addr #3 align 2 {
entry:
  %m_bs_num_bool_vars = getelementptr inbounds i8, ptr %this, i64 44
  %0 = load i32, ptr %m_bs_num_bool_vars, align 4
  %cmp = icmp ugt i32 %0, %v
  br i1 %cmp, label %if.end4, label %if.end

if.end:                                           ; preds = %entry
  %m_delayed_queue = getelementptr inbounds i8, ptr %this, i64 48
  %1 = getelementptr inbounds i8, ptr %this, i64 64
  %m_delayed_queue.val = load ptr, ptr %1, align 8
  %cmp.i.i = icmp eq ptr %m_delayed_queue.val, null
  br i1 %cmp.i.i, label %_ZNK6vectorIiLb0EjE4sizeEv.exit.i, label %if.end.i.i

if.end.i.i:                                       ; preds = %if.end
  %arrayidx.i.i = getelementptr inbounds i8, ptr %m_delayed_queue.val, i64 -4
  %2 = load i32, ptr %arrayidx.i.i, align 4
  br label %_ZNK6vectorIiLb0EjE4sizeEv.exit.i

_ZNK6vectorIiLb0EjE4sizeEv.exit.i:                ; preds = %if.end.i.i, %if.end
  %retval.0.i.i = phi i32 [ %2, %if.end.i.i ], [ 0, %if.end ]
  %cmp.i = icmp sgt i32 %retval.0.i.i, %v
  br i1 %cmp.i, label %_ZNK4heapIN12_GLOBAL__N_115bool_var_act_ltEE8containsEi.exit, label %if.then2

_ZNK4heapIN12_GLOBAL__N_115bool_var_act_ltEE8containsEi.exit: ; preds = %_ZNK6vectorIiLb0EjE4sizeEv.exit.i
  %idxprom.i.i = zext i32 %v to i64
  %arrayidx.i2.i = getelementptr inbounds i32, ptr %m_delayed_queue.val, i64 %idxprom.i.i
  %3 = load i32, ptr %arrayidx.i2.i, align 4
  %cmp4.i.not = icmp eq i32 %3, 0
  br i1 %cmp4.i.not, label %if.then2, label %if.end4

if.then2:                                         ; preds = %_ZNK6vectorIiLb0EjE4sizeEv.exit.i, %_ZNK4heapIN12_GLOBAL__N_115bool_var_act_ltEE8containsEi.exit
  %m_values.i = getelementptr inbounds i8, ptr %this, i64 56
  %4 = load ptr, ptr %m_values.i, align 8
  %cmp.i.i3 = icmp eq ptr %4, null
  br i1 %cmp.i.i3, label %_ZNK6vectorIiLb0EjE4sizeEv.exit.i6, label %if.end.i.i4

if.end.i.i4:                                      ; preds = %if.then2
  %arrayidx.i.i5 = getelementptr inbounds i8, ptr %4, i64 -4
  %5 = load i32, ptr %arrayidx.i.i5, align 4
  br label %_ZNK6vectorIiLb0EjE4sizeEv.exit.i6

_ZNK6vectorIiLb0EjE4sizeEv.exit.i6:               ; preds = %if.end.i.i4, %if.then2
  %retval.0.i.i7 = phi i32 [ %5, %if.end.i.i4 ], [ 0, %if.then2 ]
  %idxprom.i.i8 = zext i32 %v to i64
  %arrayidx.i2.i9 = getelementptr inbounds i32, ptr %m_delayed_queue.val, i64 %idxprom.i.i8
  store i32 %retval.0.i.i7, ptr %arrayidx.i2.i9, align 4
  %6 = load ptr, ptr %m_values.i, align 8
  %cmp.i3.i = icmp eq ptr %6, null
  br i1 %cmp.i3.i, label %if.then.i.i, label %lor.lhs.false.i.i

lor.lhs.false.i.i:                                ; preds = %_ZNK6vectorIiLb0EjE4sizeEv.exit.i6
  %arrayidx.i4.i = getelementptr inbounds i8, ptr %6, i64 -4
  %7 = load i32, ptr %arrayidx.i4.i, align 4
  %arrayidx4.i.i = getelementptr inbounds i8, ptr %6, i64 -8
  %8 = load i32, ptr %arrayidx4.i.i, align 4
  %cmp5.i.i = icmp eq i32 %7, %8
  br i1 %cmp5.i.i, label %if.then.i.i, label %_ZN6vectorIiLb0EjE9push_backERKi.exit.i

if.then.i.i:                                      ; preds = %lor.lhs.false.i.i, %_ZNK6vectorIiLb0EjE4sizeEv.exit.i6
  tail call void @_ZN6vectorIiLb0EjE13expand_vectorEv(ptr noundef nonnull align 8 dereferenceable(8) %m_values.i)
  %.pre.i.i = load ptr, ptr %m_values.i, align 8
  %arrayidx8.phi.trans.insert.i.i = getelementptr inbounds i8, ptr %.pre.i.i, i64 -4
  %.pre1.i.i = load i32, ptr %arrayidx8.phi.trans.insert.i.i, align 4
  br label %_ZN6vectorIiLb0EjE9push_backERKi.exit.i

_ZN6vectorIiLb0EjE9push_backERKi.exit.i:          ; preds = %if.then.i.i, %lor.lhs.false.i.i
  %9 = phi i32 [ %.pre1.i.i, %if.then.i.i ], [ %7, %lor.lhs.false.i.i ]
  %10 = phi ptr [ %.pre.i.i, %if.then.i.i ], [ %6, %lor.lhs.false.i.i ]
  %idx.ext.i.i = zext i32 %9 to i64
  %add.ptr.i.i = getelementptr inbounds i32, ptr %10, i64 %idx.ext.i.i
  store i32 %v, ptr %add.ptr.i.i, align 4
  %11 = load ptr, ptr %m_values.i, align 8
  %arrayidx10.i.i = getelementptr inbounds i8, ptr %11, i64 -4
  %12 = load i32, ptr %arrayidx10.i.i, align 4
  %inc.i.i = add i32 %12, 1
  store i32 %inc.i.i, ptr %arrayidx10.i.i, align 4
  %13 = load ptr, ptr %m_values.i, align 8
  %idxprom.i.i.i = zext i32 %retval.0.i.i7 to i64
  %arrayidx.i.i.i = getelementptr inbounds i32, ptr %13, i64 %idxprom.i.i.i
  %14 = load i32, ptr %arrayidx.i.i.i, align 4
  %cmp27.i.i = icmp ult i32 %retval.0.i.i7, 2
  %.pre34.i.i = zext i32 %14 to i64
  br i1 %cmp27.i.i, label %_ZN4heapIN12_GLOBAL__N_115bool_var_act_ltEE6insertEi.exit, label %lor.lhs.false.i6.i

lor.lhs.false.i6.i:                               ; preds = %_ZN6vectorIiLb0EjE9push_backERKi.exit.i, %if.end.i7.i
  %idx.addr.028.i.i = phi i32 [ %shr.i29.i.i, %if.end.i7.i ], [ %retval.0.i.i7, %_ZN6vectorIiLb0EjE9push_backERKi.exit.i ]
  %shr.i29.i.i = ashr i32 %idx.addr.028.i.i, 1
  %15 = load ptr, ptr %m_values.i, align 8
  %idxprom.i12.i.i = zext i32 %shr.i29.i.i to i64
  %arrayidx.i13.i.i = getelementptr inbounds i32, ptr %15, i64 %idxprom.i12.i.i
  %16 = load i32, ptr %arrayidx.i13.i.i, align 4
  %this.val.i.i = load ptr, ptr %m_delayed_queue, align 8
  %this.val.val.i.i = load ptr, ptr %this.val.i.i, align 8
  %arrayidx.i.i.i.i.i = getelementptr inbounds double, ptr %this.val.val.i.i, i64 %.pre34.i.i
  %17 = load double, ptr %arrayidx.i.i.i.i.i, align 8
  %idxprom.i1.i.i.i.i = zext i32 %16 to i64
  %arrayidx.i2.i.i.i.i = getelementptr inbounds double, ptr %this.val.val.i.i, i64 %idxprom.i1.i.i.i.i
  %18 = load double, ptr %arrayidx.i2.i.i.i.i, align 8
  %cmp.i.i.i.i = fcmp ogt double %17, %18
  %idxprom.i16.i.i = zext i32 %idx.addr.028.i.i to i64
  br i1 %cmp.i.i.i.i, label %if.end.i7.i, label %_ZN4heapIN12_GLOBAL__N_115bool_var_act_ltEE6insertEi.exit

if.end.i7.i:                                      ; preds = %lor.lhs.false.i6.i
  %arrayidx.i17.i.i = getelementptr inbounds i32, ptr %15, i64 %idxprom.i16.i.i
  store i32 %16, ptr %arrayidx.i17.i.i, align 4
  %19 = load ptr, ptr %m_values.i, align 8
  %arrayidx.i19.i.i = getelementptr inbounds i32, ptr %19, i64 %idxprom.i16.i.i
  %20 = load i32, ptr %arrayidx.i19.i.i, align 4
  %21 = load ptr, ptr %1, align 8
  %idxprom.i20.i.i = zext i32 %20 to i64
  %arrayidx.i21.i.i = getelementptr inbounds i32, ptr %21, i64 %idxprom.i20.i.i
  store i32 %idx.addr.028.i.i, ptr %arrayidx.i21.i.i, align 4
  %cmp.i8.i = icmp ult i32 %shr.i29.i.i, 2
  br i1 %cmp.i8.i, label %if.end.while.end.loopexit_crit_edge.i.i, label %lor.lhs.false.i6.i, !llvm.loop !7

if.end.while.end.loopexit_crit_edge.i.i:          ; preds = %if.end.i7.i
  %.pre.pre.i.i = load ptr, ptr %m_values.i, align 8
  br label %_ZN4heapIN12_GLOBAL__N_115bool_var_act_ltEE6insertEi.exit

_ZN4heapIN12_GLOBAL__N_115bool_var_act_ltEE6insertEi.exit: ; preds = %lor.lhs.false.i6.i, %_ZN6vectorIiLb0EjE9push_backERKi.exit.i, %if.end.while.end.loopexit_crit_edge.i.i
  %idxprom.i22.pre-phi.i.i = phi i64 [ %idxprom.i12.i.i, %if.end.while.end.loopexit_crit_edge.i.i ], [ %idxprom.i.i.i, %_ZN6vectorIiLb0EjE9push_backERKi.exit.i ], [ %idxprom.i16.i.i, %lor.lhs.false.i6.i ]
  %22 = phi ptr [ %.pre.pre.i.i, %if.end.while.end.loopexit_crit_edge.i.i ], [ %13, %_ZN6vectorIiLb0EjE9push_backERKi.exit.i ], [ %15, %lor.lhs.false.i6.i ]
  %idx.addr.0.lcssa.i.i = phi i32 [ %shr.i29.i.i, %if.end.while.end.loopexit_crit_edge.i.i ], [ %retval.0.i.i7, %_ZN6vectorIiLb0EjE9push_backERKi.exit.i ], [ %idx.addr.028.i.i, %lor.lhs.false.i6.i ]
  %arrayidx.i23.i.i = getelementptr inbounds i32, ptr %22, i64 %idxprom.i22.pre-phi.i.i
  store i32 %14, ptr %arrayidx.i23.i.i, align 4
  %23 = load ptr, ptr %1, align 8
  %arrayidx.i25.i.i = getelementptr inbounds i32, ptr %23, i64 %.pre34.i.i
  store i32 %idx.addr.0.lcssa.i.i, ptr %arrayidx.i25.i.i, align 4
  br label %if.end4

if.end4:                                          ; preds = %entry, %_ZN4heapIN12_GLOBAL__N_115bool_var_act_ltEE6insertEi.exit, %_ZNK4heapIN12_GLOBAL__N_115bool_var_act_ltEE8containsEi.exit
  ret void
}